; Function Attrs: mustprogress nofree norecurse nosync nounwind memory(readwrite, inaccessiblemem: none) uwtable
define hidden void @_ZN5nlsat6solver11set_bvaluesERK7svectorI5lbooljE(ptr nocapture noundef nonnull readonly align 8 dereferenceable(16) %this, ptr nocapture noundef nonnull readonly align 8 dereferenceable(8) %vs) local_unnamed_addr #12 align 2 {
entry:
  br label %for.cond

for.cond:                                         ; preds = %for.inc, %entry
  %indvars.iv = phi i64 [ %indvars.iv.next, %for.inc ], [ 0, %entry ]
  %0 = load ptr, ptr %vs, align 8
  %cmp.i = icmp eq ptr %0, null
  br i1 %cmp.i, label %_ZNK6vectorI5lboolLb0EjE4sizeEv.exit, label %if.end.i

if.end.i:                                         ; preds = %for.cond
  %arrayidx.i = getelementptr inbounds i8, ptr %0, i64 -4
  %1 = load i32, ptr %arrayidx.i, align 4
  br label %_ZNK6vectorI5lboolLb0EjE4sizeEv.exit

_ZNK6vectorI5lboolLb0EjE4sizeEv.exit:             ; preds = %for.cond, %if.end.i
  %retval.0.i = phi i32 [ %1, %if.end.i ], [ 0, %for.cond ]
  %2 = zext i32 %retval.0.i to i64
  %cmp = icmp ult i64 %indvars.iv, %2
  br i1 %cmp, label %for.body, label %for.end

for.body:                                         ; preds = %_ZNK6vectorI5lboolLb0EjE4sizeEv.exit
  %arrayidx.i7 = getelementptr inbounds i32, ptr %0, i64 %indvars.iv
  %3 = load i32, ptr %arrayidx.i7, align 4
  %cmp3.not = icmp eq i32 %3, 0
  br i1 %cmp3.not, label %for.inc, label %if.then

if.then:                                          ; preds = %for.body
  %4 = load ptr, ptr %this, align 8
  %m_bvalues = getelementptr inbounds i8, ptr %4, i64 368
  %5 = load ptr, ptr %m_bvalues, align 8
  %arrayidx.i11 = getelementptr inbounds i32, ptr %5, i64 %indvars.iv
  store i32 %3, ptr %arrayidx.i11, align 4
  br label %for.inc

for.inc:                                          ; preds = %for.body, %if.then
  %indvars.iv.next = add nuw nsw i64 %indvars.iv, 1
  br label %for.cond, !llvm.loop !26

for.end:                                          ; preds = %_ZNK6vectorI5lboolLb0EjE4sizeEv.exit
  ret void
}